target datalayout = "e-m:e-p270:32:32-p271:32:32-p272:64:64-i64:64-i128:128-f80:128-n8:16:32:64-S128"
target triple = "x86_64-pc-linux-gnu"

@.str.7 = private unnamed_addr constant [9 x i8] c"database\00", align 1
@.str.8 = private unnamed_addr constant [10 x i8] c"extension\00", align 1
@.str.10 = private unnamed_addr constant [9 x i8] c"function\00", align 1
@.str.11 = private unnamed_addr constant [6 x i8] c"index\00", align 1
@.str.12 = private unnamed_addr constant [7 x i8] c"schema\00", align 1
@.str.13 = private unnamed_addr constant [6 x i8] c"table\00", align 1
@.str.15 = private unnamed_addr constant [8 x i8] c"trigger\00", align 1
@.str.25 = private unnamed_addr constant [11 x i8] c"table_data\00", align 1
@.str.26 = private unnamed_addr constant [24 x i8] c"table_data_and_children\00", align 1
@.str.27 = private unnamed_addr constant [13 x i8] c"foreign_data\00", align 1
@.str.28 = private unnamed_addr constant [19 x i8] c"table_and_children\00", align 1

; Function Attrs: nounwind uwtable
define internal zeroext i1 @get_object_type(ptr noundef %0, i32 noundef %1, ptr noundef %2) #0 {
  %4 = alloca i1, align 1
  %5 = alloca ptr, align 8
  %6 = alloca i32, align 4
  %7 = alloca ptr, align 8
  store ptr %0, ptr %5, align 8
  store i32 %1, ptr %6, align 4
  store ptr %2, ptr %7, align 8
  %8 = load i32, ptr %6, align 4
  %9 = sext i32 %8 to i64
  %10 = icmp eq i64 10, %9
  br i1 %10, label %11, label %19

11:                                               ; preds = %3
  %12 = load ptr, ptr %5, align 8
  %13 = load i32, ptr %6, align 4
  %14 = sext i32 %13 to i64
  %15 = call i32 @pg_strncasecmp(ptr noundef @.str.25, ptr noundef %12, i64 noundef %14)
  %16 = icmp eq i32 %15, 0
  br i1 %16, label %17, label %19

17:                                               ; preds = %11
  %18 = load ptr, ptr %7, align 8
  store i32 1, ptr %18, align 4
  br label %150

19:                                               ; preds = %11, %3
  %20 = load i32, ptr %6, align 4
  %21 = sext i32 %20 to i64
  %22 = icmp eq i64 23, %21
  br i1 %22, label %23, label %31

23:                                               ; preds = %19
  %24 = load ptr, ptr %5, align 8
  %25 = load i32, ptr %6, align 4
  %26 = sext i32 %25 to i64
  %27 = call i32 @pg_strncasecmp(ptr noundef @.str.26, ptr noundef %24, i64 noundef %26)
  %28 = icmp eq i32 %27, 0
  br i1 %28, label %29, label %31

29:                                               ; preds = %23
  %30 = load ptr, ptr %7, align 8
  store i32 2, ptr %30, align 4
  br label %149

31:                                               ; preds = %23, %19
  %32 = load i32, ptr %6, align 4
  %33 = sext i32 %32 to i64
  %34 = icmp eq i64 8, %33
  br i1 %34, label %35, label %43

35:                                               ; preds = %31
  %36 = load ptr, ptr %5, align 8
  %37 = load i32, ptr %6, align 4
  %38 = sext i32 %37 to i64
  %39 = call i32 @pg_strncasecmp(ptr noundef @.str.7, ptr noundef %36, i64 noundef %38)
  %40 = icmp eq i32 %39, 0
  br i1 %40, label %41, label %43

41:                                               ; preds = %35
  %42 = load ptr, ptr %7, align 8
  store i32 3, ptr %42, align 4
  br label %148

43:                                               ; preds = %35, %31
  %44 = load i32, ptr %6, align 4
  %45 = sext i32 %44 to i64
  %46 = icmp eq i64 9, %45
  br i1 %46, label %47, label %55

47:                                               ; preds = %43
  %48 = load ptr, ptr %5, align 8
  %49 = load i32, ptr %6, align 4
  %50 = sext i32 %49 to i64
  %51 = call i32 @pg_strncasecmp(ptr noundef @.str.8, ptr noundef %48, i64 noundef %50)
  %52 = icmp eq i32 %51, 0
  br i1 %52, label %53, label %55

53:                                               ; preds = %47
  %54 = load ptr, ptr %7, align 8
  store i32 4, ptr %54, align 4
  br label %147

55:                                               ; preds = %47, %43
  %56 = load i32, ptr %6, align 4
  %57 = sext i32 %56 to i64
  %58 = icmp eq i64 12, %57
  br i1 %58, label %59, label %67

59:                                               ; preds = %55
  %60 = load ptr, ptr %5, align 8
  %61 = load i32, ptr %6, align 4
  %62 = sext i32 %61 to i64
  %63 = call i32 @pg_strncasecmp(ptr noundef @.str.27, ptr noundef %60, i64 noundef %62)
  %64 = icmp eq i32 %63, 0
  br i1 %64, label %65, label %67

65:                                               ; preds = %59
  %66 = load ptr, ptr %7, align 8
  store i32 5, ptr %66, align 4
  br label %146

67:                                               ; preds = %59, %55
  %68 = load i32, ptr %6, align 4
  %69 = sext i32 %68 to i64
  %70 = icmp eq i64 8, %69
  br i1 %70, label %71, label %79

71:                                               ; preds = %67
  %72 = load ptr, ptr %5, align 8
  %73 = load i32, ptr %6, align 4
  %74 = sext i32 %73 to i64
  %75 = call i32 @pg_strncasecmp(ptr noundef @.str.10, ptr noundef %72, i64 noundef %74)
  %76 = icmp eq i32 %75, 0
  br i1 %76, label %77, label %79

77:                                               ; preds = %71
  %78 = load ptr, ptr %7, align 8
  store i32 6, ptr %78, align 4
  br label %145

79:                                               ; preds = %71, %67
  %80 = load i32, ptr %6, align 4
  %81 = sext i32 %80 to i64
  %82 = icmp eq i64 5, %81
  br i1 %82, label %83, label %91

83:                                               ; preds = %79
  %84 = load ptr, ptr %5, align 8
  %85 = load i32, ptr %6, align 4
  %86 = sext i32 %85 to i64
  %87 = call i32 @pg_strncasecmp(ptr noundef @.str.11, ptr noundef %84, i64 noundef %86)
  %88 = icmp eq i32 %87, 0
  br i1 %88, label %89, label %91

89:                                               ; preds = %83
  %90 = load ptr, ptr %7, align 8
  store i32 7, ptr %90, align 4
  br label %144

91:                                               ; preds = %83, %79
  %92 = load i32, ptr %6, align 4
  %93 = sext i32 %92 to i64
  %94 = icmp eq i64 6, %93
  br i1 %94, label %95, label %103

95:                                               ; preds = %91
  %96 = load ptr, ptr %5, align 8
  %97 = load i32, ptr %6, align 4
  %98 = sext i32 %97 to i64
  %99 = call i32 @pg_strncasecmp(ptr noundef @.str.12, ptr noundef %96, i64 noundef %98)
  %100 = icmp eq i32 %99, 0
  br i1 %100, label %101, label %103

101:                                              ; preds = %95
  %102 = load ptr, ptr %7, align 8
  store i32 8, ptr %102, align 4
  br label %143

103:                                              ; preds = %95, %91
  %104 = load i32, ptr %6, align 4
  %105 = sext i32 %104 to i64
  %106 = icmp eq i64 5, %105
  br i1 %106, label %107, label %115

107:                                              ; preds = %103
  %108 = load ptr, ptr %5, align 8
  %109 = load i32, ptr %6, align 4
  %110 = sext i32 %109 to i64
  %111 = call i32 @pg_strncasecmp(ptr noundef @.str.13, ptr noundef %108, i64 noundef %110)
  %112 = icmp eq i32 %111, 0
  br i1 %112, label %113, label %115

113:                                              ; preds = %107
  %114 = load ptr, ptr %7, align 8
  store i32 9, ptr %114, align 4
  br label %142

115:                                              ; preds = %107, %103
  %116 = load i32, ptr %6, align 4
  %117 = sext i32 %116 to i64
  %118 = icmp eq i64 18, %117
  br i1 %118, label %119, label %127

119:                                              ; preds = %115
  %120 = load ptr, ptr %5, align 8
  %121 = load i32, ptr %6, align 4
  %122 = sext i32 %121 to i64
  %123 = call i32 @pg_strncasecmp(ptr noundef @.str.28, ptr noundef %120, i64 noundef %122)
  %124 = icmp eq i32 %123, 0
  br i1 %124, label %125, label %127

125:                                              ; preds = %119
  %126 = load ptr, ptr %7, align 8
  store i32 10, ptr %126, align 4
  br label %141

127:                                              ; preds = %119, %115
  %128 = load i32, ptr %6, align 4
  %129 = sext i32 %128 to i64
  %130 = icmp eq i64 7, %129
  br i1 %130, label %131, label %139

131:                                              ; preds = %127
  %132 = load ptr, ptr %5, align 8
  %133 = load i32, ptr %6, align 4
  %134 = sext i32 %133 to i64
  %135 = call i32 @pg_strncasecmp(ptr noundef @.str.15, ptr noundef %132, i64 noundef %134)
  %136 = icmp eq i32 %135, 0
  br i1 %136, label %137, label %139

137:                                              ; preds = %131
  %138 = load ptr, ptr %7, align 8
  store i32 11, ptr %138, align 4
  br label %140

139:                                              ; preds = %131, %127
  store i1 false, ptr %4, align 1
  br label %151

140:                                              ; preds = %137
  br label %141

141:                                              ; preds = %140, %125
  br label %142

142:                                              ; preds = %141, %113
  br label %143

143:                                              ; preds = %142, %101
  br label %144

144:                                              ; preds = %143, %89
  br label %145

145:                                              ; preds = %144, %77
  br label %146

146:                                              ; preds = %145, %65
  br label %147

147:                                              ; preds = %146, %53
  br label %148

148:                                              ; preds = %147, %41
  br label %149

149:                                              ; preds = %148, %29
  br label %150

150:                                              ; preds = %149, %17
  store i1 true, ptr %4, align 1
  br label %151

151:                                              ; preds = %150, %139
  %152 = load i1, ptr %4, align 1
  ret i1 %152
}