; Function Attrs: nounwind uwtable
define internal fastcc noundef zeroext i1 @get_object_type(ptr noundef %0, i32 noundef %1, ptr noundef writeonly captures(none) %2) unnamed_addr #0 {
  switch i32 %1, label %.thread51 [
    i32 10, label %4
    i32 23, label %7
    i32 8, label %10
    i32 9, label %13
    i32 12, label %16
    i32 5, label %21
    i32 6, label %24
    i32 18, label %30
    i32 7, label %33
  ]

4:                                                ; preds = %3
  %5 = tail call i32 @pg_strncasecmp(ptr noundef nonnull @.str.25, ptr noundef %0, i64 noundef 10) #9
  %6 = icmp eq i32 %5, 0
  br i1 %6, label %.thread51.sink.split, label %.thread51

7:                                                ; preds = %3
  %8 = tail call i32 @pg_strncasecmp(ptr noundef nonnull @.str.26, ptr noundef %0, i64 noundef 23) #9
  %9 = icmp eq i32 %8, 0
  br i1 %9, label %.thread51.sink.split, label %.thread51

10:                                               ; preds = %3
  %11 = tail call i32 @pg_strncasecmp(ptr noundef nonnull @.str.7, ptr noundef %0, i64 noundef 8) #9
  %12 = icmp eq i32 %11, 0
  br i1 %12, label %.thread51.sink.split, label %.thread46

13:                                               ; preds = %3
  %14 = tail call i32 @pg_strncasecmp(ptr noundef nonnull @.str.8, ptr noundef %0, i64 noundef 9) #9
  %15 = icmp eq i32 %14, 0
  br i1 %15, label %.thread51.sink.split, label %.thread51

16:                                               ; preds = %3
  %17 = tail call i32 @pg_strncasecmp(ptr noundef nonnull @.str.27, ptr noundef %0, i64 noundef 12) #9
  %18 = icmp eq i32 %17, 0
  br i1 %18, label %.thread51.sink.split, label %.thread51

.thread46:                                        ; preds = %10
  %19 = tail call i32 @pg_strncasecmp(ptr noundef nonnull @.str.10, ptr noundef %0, i64 noundef 8) #9
  %20 = icmp eq i32 %19, 0
  br i1 %20, label %.thread51.sink.split, label %.thread51

21:                                               ; preds = %3
  %22 = tail call i32 @pg_strncasecmp(ptr noundef nonnull @.str.11, ptr noundef %0, i64 noundef 5) #9
  %23 = icmp eq i32 %22, 0
  br i1 %23, label %.thread51.sink.split, label %27

24:                                               ; preds = %3
  %25 = tail call i32 @pg_strncasecmp(ptr noundef nonnull @.str.12, ptr noundef %0, i64 noundef 6) #9
  %26 = icmp eq i32 %25, 0
  br i1 %26, label %.thread51.sink.split, label %.thread51

27:                                               ; preds = %21
  %28 = tail call i32 @pg_strncasecmp(ptr noundef nonnull @.str.13, ptr noundef %0, i64 noundef 5) #9
  %29 = icmp eq i32 %28, 0
  br i1 %29, label %.thread51.sink.split, label %.thread51

30:                                               ; preds = %3
  %31 = tail call i32 @pg_strncasecmp(ptr noundef nonnull @.str.28, ptr noundef %0, i64 noundef 18) #9
  %32 = icmp eq i32 %31, 0
  br i1 %32, label %.thread51.sink.split, label %.thread51

33:                                               ; preds = %3
  %34 = tail call i32 @pg_strncasecmp(ptr noundef nonnull @.str.15, ptr noundef %0, i64 noundef 7) #9
  %35 = icmp eq i32 %34, 0
  br i1 %35, label %.thread51.sink.split, label %.thread51

.thread51.sink.split:                             ; preds = %33, %30, %27, %24, %21, %.thread46, %16, %13, %10, %7, %4
  %.sink = phi i32 [ 1, %4 ], [ 2, %7 ], [ 3, %10 ], [ 4, %13 ], [ 5, %16 ], [ 6, %.thread46 ], [ 7, %21 ], [ 8, %24 ], [ 9, %27 ], [ 10, %30 ], [ 11, %33 ]
  store i32 %.sink, ptr %2, align 4
  br label %.thread51

.thread51:                                        ; preds = %.thread51.sink.split, %.thread46, %13, %16, %4, %7, %3, %27, %24, %30, %33
  %.0 = phi i1 [ false, %33 ], [ false, %30 ], [ false, %24 ], [ false, %27 ], [ false, %3 ], [ false, %7 ], [ false, %4 ], [ false, %16 ], [ false, %13 ], [ false, %.thread46 ], [ true, %.thread51.sink.split ]
  ret i1 %.0
}